target datalayout = "e-m:e-p270:32:32-p271:32:32-p272:64:64-i64:64-i128:128-f80:128-n8:16:32:64-S128"
target triple = "x86_64-pc-linux-gnu"

@.str.205 = private unnamed_addr constant [30 x i8] c"AllJoyn Name Service Protocol\00", align 1
@.str.206 = private unnamed_addr constant [11 x i8] c"AllJoyn NS\00", align 1
@.str.207 = private unnamed_addr constant [5 x i8] c"ajns\00", align 1
@proto_AllJoyn_ns = internal global i32 0, align 4
@alljoyn_handle_ns = internal global ptr null, align 8
@.str.208 = private unnamed_addr constant [25 x i8] c"AllJoyn Message Protocol\00", align 1
@.str.209 = private unnamed_addr constant [8 x i8] c"AllJoyn\00", align 1
@.str.210 = private unnamed_addr constant [3 x i8] c"aj\00", align 1
@proto_AllJoyn_mess = internal global i32 0, align 4
@.str.211 = private unnamed_addr constant [35 x i8] c"AllJoyn Reliable Datagram Protocol\00", align 1
@.str.212 = private unnamed_addr constant [13 x i8] c"AllJoyn ARDP\00", align 1
@.str.213 = private unnamed_addr constant [5 x i8] c"ardp\00", align 1
@proto_AllJoyn_ardp = internal global i32 0, align 4
@alljoyn_handle_ardp = internal global ptr null, align 8

; Function Attrs: null_pointer_is_valid sspstrong uwtable
define hidden void @proto_register_AllJoyn() #0 {
  %1 = alloca ptr, align 8
  call void @llvm.lifetime.start.p0(i64 8, ptr %1) #5
  %2 = call i32 @proto_register_protocol(ptr noundef @.str.205, ptr noundef @.str.206, ptr noundef @.str.207)
  store i32 %2, ptr @proto_AllJoyn_ns, align 4
  %3 = load i32, ptr @proto_AllJoyn_ns, align 4
  %4 = call ptr @register_dissector(ptr noundef @.str.207, ptr noundef @dissect_AllJoyn_name_server, i32 noundef %3)
  store ptr %4, ptr @alljoyn_handle_ns, align 8
  %5 = call i32 @proto_register_protocol(ptr noundef @.str.208, ptr noundef @.str.209, ptr noundef @.str.210)
  store i32 %5, ptr @proto_AllJoyn_mess, align 4
  %6 = load i32, ptr @proto_AllJoyn_ns, align 4
  call void @proto_register_field_array(i32 noundef %6, ptr noundef @proto_register_AllJoyn.hf, i32 noundef 104)
  call void @proto_register_subtree_array(ptr noundef @proto_register_AllJoyn.ett, i32 noundef 16)
  %7 = load i32, ptr @proto_AllJoyn_mess, align 4
  %8 = call ptr @expert_register_protocol(i32 noundef %7)
  store ptr %8, ptr %1, align 8
  %9 = load ptr, ptr %1, align 8
  call void @expert_register_field_array(ptr noundef %9, ptr noundef @proto_register_AllJoyn.ei, i32 noundef 1)
  %10 = call i32 @proto_register_protocol(ptr noundef @.str.211, ptr noundef @.str.212, ptr noundef @.str.213)
  store i32 %10, ptr @proto_AllJoyn_ardp, align 4
  %11 = load i32, ptr @proto_AllJoyn_ardp, align 4
  %12 = call ptr @register_dissector(ptr noundef @.str.213, ptr noundef @dissect_AllJoyn_ardp, i32 noundef %11)
  store ptr %12, ptr @alljoyn_handle_ardp, align 8
  call void @llvm.lifetime.end.p0(i64 8, ptr %1) #5
  ret void
}