; Function Attrs: null_pointer_is_valid sspstrong uwtable
define hidden void @proto_register_AllJoyn() local_unnamed_addr #0 {
  %1 = tail call i32 @proto_register_protocol(ptr noundef nonnull @.str.205, ptr noundef nonnull @.str.206, ptr noundef nonnull @.str.207)
  store i32 %1, ptr @proto_AllJoyn_ns, align 4
  %2 = tail call ptr @register_dissector(ptr noundef nonnull @.str.207, ptr noundef nonnull @dissect_AllJoyn_name_server, i32 noundef %1)
  store ptr %2, ptr @alljoyn_handle_ns, align 8
  %3 = tail call i32 @proto_register_protocol(ptr noundef nonnull @.str.208, ptr noundef nonnull @.str.209, ptr noundef nonnull @.str.210)
  store i32 %3, ptr @proto_AllJoyn_mess, align 4
  %4 = load i32, ptr @proto_AllJoyn_ns, align 4
  tail call void @proto_register_field_array(i32 noundef %4, ptr noundef nonnull @proto_register_AllJoyn.hf, i32 noundef 104)
  tail call void @proto_register_subtree_array(ptr noundef nonnull @proto_register_AllJoyn.ett, i32 noundef 16)
  %5 = load i32, ptr @proto_AllJoyn_mess, align 4
  %6 = tail call ptr @expert_register_protocol(i32 noundef %5)
  tail call void @expert_register_field_array(ptr noundef %6, ptr noundef nonnull @proto_register_AllJoyn.ei, i32 noundef 1)
  %7 = tail call i32 @proto_register_protocol(ptr noundef nonnull @.str.211, ptr noundef nonnull @.str.212, ptr noundef nonnull @.str.213)
  store i32 %7, ptr @proto_AllJoyn_ardp, align 4
  %8 = tail call ptr @register_dissector(ptr noundef nonnull @.str.213, ptr noundef nonnull @dissect_AllJoyn_ardp, i32 noundef %7)
  store ptr %8, ptr @alljoyn_handle_ardp, align 8
  ret void
}